; Function Attrs: mustprogress uwtable
define void @_ZNK7rocksdb16TtlMergeOperator15ValidateOptionsERKNS_9DBOptionsERKNS_19ColumnFamilyOptionsE(ptr noalias sret(%"class.rocksdb::Status") align 8 %agg.result, ptr noundef nonnull align 8 dereferenceable(56) %this, ptr noundef nonnull align 8 dereferenceable(688) %db_opts, ptr noundef nonnull align 8 dereferenceable(820) %cf_opts) unnamed_addr #2 align 2 {
entry:
  %ref.tmp = alloca %"class.rocksdb::Slice", align 8
  %ref.tmp2 = alloca %"class.rocksdb::Slice", align 8
  %ref.tmp4 = alloca %"class.rocksdb::Slice", align 8
  %ref.tmp5 = alloca %"class.rocksdb::Slice", align 8
  %user_merge_op_ = getelementptr inbounds i8, ptr %this, i64 32
  %0 = load ptr, ptr %user_merge_op_, align 8
  %cmp.i.not.i = icmp eq ptr %0, null
  br i1 %cmp.i.not.i, label %if.then, label %if.else

if.then:                                          ; preds = %entry
  store ptr @.str.9, ptr %ref.tmp, align 8
  %size_.i = getelementptr inbounds i8, ptr %ref.tmp, i64 8
  store i64 46, ptr %size_.i, align 8
  store ptr @.str.27, ptr %ref.tmp2, align 8
  %size_.i1 = getelementptr inbounds i8, ptr %ref.tmp2, i64 8
  store i64 0, ptr %size_.i1, align 8
  call void @_ZN7rocksdb6StatusC2ENS0_4CodeENS0_7SubCodeERKNS_5SliceES5_NS0_8SeverityE(ptr noundef nonnull align 8 dereferenceable(16) %agg.result, i8 noundef zeroext 4, i8 noundef zeroext 0, ptr noundef nonnull align 8 dereferenceable(16) %ref.tmp, ptr noundef nonnull align 8 dereferenceable(16) %ref.tmp2, i8 noundef zeroext 0)
  br label %return

if.else:                                          ; preds = %entry
  %clock_ = getelementptr inbounds i8, ptr %this, i64 48
  %1 = load ptr, ptr %clock_, align 8
  %cmp = icmp eq ptr %1, null
  br i1 %cmp, label %if.then3, label %if.else6

if.then3:                                         ; preds = %if.else
  store ptr @.str.10, ptr %ref.tmp4, align 8
  %size_.i3 = getelementptr inbounds i8, ptr %ref.tmp4, i64 8
  store i64 40, ptr %size_.i3, align 8
  store ptr @.str.27, ptr %ref.tmp5, align 8
  %size_.i4 = getelementptr inbounds i8, ptr %ref.tmp5, i64 8
  store i64 0, ptr %size_.i4, align 8
  call void @_ZN7rocksdb6StatusC2ENS0_4CodeENS0_7SubCodeERKNS_5SliceES5_NS0_8SeverityE(ptr noundef nonnull align 8 dereferenceable(16) %agg.result, i8 noundef zeroext 4, i8 noundef zeroext 0, ptr noundef nonnull align 8 dereferenceable(16) %ref.tmp4, ptr noundef nonnull align 8 dereferenceable(16) %ref.tmp5, i8 noundef zeroext 0)
  br label %return

if.else6:                                         ; preds = %if.else
  tail call void @_ZNK7rocksdb12Configurable15ValidateOptionsERKNS_9DBOptionsERKNS_19ColumnFamilyOptionsE(ptr sret(%"class.rocksdb::Status") align 8 %agg.result, ptr noundef nonnull align 8 dereferenceable(32) %this, ptr noundef nonnull align 8 dereferenceable(688) %db_opts, ptr noundef nonnull align 8 dereferenceable(820) %cf_opts)
  br label %return

return:                                           ; preds = %if.else6, %if.then3, %if.then
  ret void
}